target datalayout = "e-m:e-p270:32:32-p271:32:32-p272:64:64-i64:64-i128:128-f80:128-n8:16:32:64-S128"
target triple = "x86_64-pc-linux-gnu"

%struct._e_guid_t = type { i32, i16, i16, [8 x i8] }
%struct._header_field_info = type { ptr, ptr, i32, i32, ptr, i64, ptr, i32, i32, i32, i32, ptr }
%struct._packet_info = type { ptr, ptr, i32, i32, %struct.nstime_t, %struct.nstime_t, %struct.nstime_t, i32, ptr, ptr, ptr, ptr, %struct._address, %struct._address, %struct._address, %struct._address, %struct._address, %struct._address, i32, ptr, i32, %struct.anon, i32, i32, i32, i32, ptr, i32, ptr, ptr, i16, i16, i32, i32, i16, i32, i32, ptr, ptr, ptr, i8, i8, i16, i16, i16, i32, i16, i16, ptr, ptr, ptr, ptr, ptr, i32 }
%struct.nstime_t = type { i64, i32 }
%struct._address = type { i32, i32, ptr, ptr }
%struct.anon = type { i8, [3 x i8] }

@.str.134 = private unnamed_addr constant [58 x i8] c"%s: %s (%08x-%04x-%04x-%02x%02x-%02x%02x%02x%02x%02x%02x)\00", align 1
@.str.135 = private unnamed_addr constant [53 x i8] c"%s: %08x-%04x-%04x-%02x%02x-%02x%02x%02x%02x%02x%02x\00", align 1

; Function Attrs: nounwind uwtable
define i32 @dissect_dcom_UUID(ptr noundef %0, i32 noundef %1, ptr noundef %2, ptr noundef %3, ptr noundef %4, ptr noundef %5, i32 noundef %6, ptr noundef %7) #0 {
  %9 = alloca ptr, align 8
  %10 = alloca i32, align 4
  %11 = alloca ptr, align 8
  %12 = alloca ptr, align 8
  %13 = alloca ptr, align 8
  %14 = alloca ptr, align 8
  %15 = alloca i32, align 4
  %16 = alloca ptr, align 8
  %17 = alloca ptr, align 8
  %18 = alloca ptr, align 8
  %19 = alloca %struct._e_guid_t, align 4
  store ptr %0, ptr %9, align 8
  store i32 %1, ptr %10, align 4
  store ptr %2, ptr %11, align 8
  store ptr %3, ptr %12, align 8
  store ptr %4, ptr %13, align 8
  store ptr %5, ptr %14, align 8
  store i32 %6, ptr %15, align 4
  store ptr %7, ptr %16, align 8
  %20 = load ptr, ptr %9, align 8
  %21 = load i32, ptr %10, align 4
  %22 = load ptr, ptr %11, align 8
  %23 = load ptr, ptr %13, align 8
  %24 = load ptr, ptr %14, align 8
  %25 = load i32, ptr %15, align 4
  %26 = call i32 @dissect_ndr_uuid_t(ptr noundef %20, i32 noundef %21, ptr noundef %22, ptr noundef null, ptr noundef %23, ptr noundef %24, i32 noundef %25, ptr noundef %19)
  store i32 %26, ptr %10, align 4
  %27 = load i32, ptr %15, align 4
  %28 = call ptr @proto_registrar_get_nth(i32 noundef %27)
  store ptr %28, ptr %18, align 8
  %29 = load ptr, ptr %11, align 8
  %30 = getelementptr inbounds %struct._packet_info, ptr %29, i32 0, i32 50
  %31 = load ptr, ptr %30, align 8
  %32 = call ptr @guids_get_guid_name(ptr noundef %19, ptr noundef %31)
  store ptr %32, ptr %17, align 8
  %33 = load ptr, ptr %17, align 8
  %34 = icmp ne ptr %33, null
  br i1 %34, label %35, label %86

35:                                               ; preds = %8
  %36 = load ptr, ptr %12, align 8
  %37 = load i32, ptr %15, align 4
  %38 = load ptr, ptr %9, align 8
  %39 = load i32, ptr %10, align 4
  %40 = sub i32 %39, 16
  %41 = load ptr, ptr %18, align 8
  %42 = getelementptr inbounds %struct._header_field_info, ptr %41, i32 0, i32 0
  %43 = load ptr, ptr %42, align 8
  %44 = load ptr, ptr %17, align 8
  %45 = getelementptr inbounds %struct._e_guid_t, ptr %19, i32 0, i32 0
  %46 = load i32, ptr %45, align 4
  %47 = getelementptr inbounds %struct._e_guid_t, ptr %19, i32 0, i32 1
  %48 = load i16, ptr %47, align 4
  %49 = zext i16 %48 to i32
  %50 = getelementptr inbounds %struct._e_guid_t, ptr %19, i32 0, i32 2
  %51 = load i16, ptr %50, align 2
  %52 = zext i16 %51 to i32
  %53 = getelementptr inbounds %struct._e_guid_t, ptr %19, i32 0, i32 3
  %54 = getelementptr [8 x i8], ptr %53, i64 0, i64 0
  %55 = load i8, ptr %54, align 4
  %56 = zext i8 %55 to i32
  %57 = getelementptr inbounds %struct._e_guid_t, ptr %19, i32 0, i32 3
  %58 = getelementptr [8 x i8], ptr %57, i64 0, i64 1
  %59 = load i8, ptr %58, align 1
  %60 = zext i8 %59 to i32
  %61 = getelementptr inbounds %struct._e_guid_t, ptr %19, i32 0, i32 3
  %62 = getelementptr [8 x i8], ptr %61, i64 0, i64 2
  %63 = load i8, ptr %62, align 2
  %64 = zext i8 %63 to i32
  %65 = getelementptr inbounds %struct._e_guid_t, ptr %19, i32 0, i32 3
  %66 = getelementptr [8 x i8], ptr %65, i64 0, i64 3
  %67 = load i8, ptr %66, align 1
  %68 = zext i8 %67 to i32
  %69 = getelementptr inbounds %struct._e_guid_t, ptr %19, i32 0, i32 3
  %70 = getelementptr [8 x i8], ptr %69, i64 0, i64 4
  %71 = load i8, ptr %70, align 4
  %72 = zext i8 %71 to i32
  %73 = getelementptr inbounds %struct._e_guid_t, ptr %19, i32 0, i32 3
  %74 = getelementptr [8 x i8], ptr %73, i64 0, i64 5
  %75 = load i8, ptr %74, align 1
  %76 = zext i8 %75 to i32
  %77 = getelementptr inbounds %struct._e_guid_t, ptr %19, i32 0, i32 3
  %78 = getelementptr [8 x i8], ptr %77, i64 0, i64 6
  %79 = load i8, ptr %78, align 2
  %80 = zext i8 %79 to i32
  %81 = getelementptr inbounds %struct._e_guid_t, ptr %19, i32 0, i32 3
  %82 = getelementptr [8 x i8], ptr %81, i64 0, i64 7
  %83 = load i8, ptr %82, align 1
  %84 = zext i8 %83 to i32
  %85 = call ptr (ptr, i32, ptr, i32, i32, ptr, ptr, ...) @proto_tree_add_guid_format(ptr noundef %36, i32 noundef %37, ptr noundef %38, i32 noundef %40, i32 noundef 16, ptr noundef %19, ptr noundef @.str.134, ptr noundef %43, ptr noundef %44, i32 noundef %46, i32 noundef %49, i32 noundef %52, i32 noundef %56, i32 noundef %60, i32 noundef %64, i32 noundef %68, i32 noundef %72, i32 noundef %76, i32 noundef %80, i32 noundef %84)
  br label %136

86:                                               ; preds = %8
  %87 = load ptr, ptr %12, align 8
  %88 = load i32, ptr %15, align 4
  %89 = load ptr, ptr %9, align 8
  %90 = load i32, ptr %10, align 4
  %91 = sub i32 %90, 16
  %92 = load ptr, ptr %18, align 8
  %93 = getelementptr inbounds %struct._header_field_info, ptr %92, i32 0, i32 0
  %94 = load ptr, ptr %93, align 8
  %95 = getelementptr inbounds %struct._e_guid_t, ptr %19, i32 0, i32 0
  %96 = load i32, ptr %95, align 4
  %97 = getelementptr inbounds %struct._e_guid_t, ptr %19, i32 0, i32 1
  %98 = load i16, ptr %97, align 4
  %99 = zext i16 %98 to i32
  %100 = getelementptr inbounds %struct._e_guid_t, ptr %19, i32 0, i32 2
  %101 = load i16, ptr %100, align 2
  %102 = zext i16 %101 to i32
  %103 = getelementptr inbounds %struct._e_guid_t, ptr %19, i32 0, i32 3
  %104 = getelementptr [8 x i8], ptr %103, i64 0, i64 0
  %105 = load i8, ptr %104, align 4
  %106 = zext i8 %105 to i32
  %107 = getelementptr inbounds %struct._e_guid_t, ptr %19, i32 0, i32 3
  %108 = getelementptr [8 x i8], ptr %107, i64 0, i64 1
  %109 = load i8, ptr %108, align 1
  %110 = zext i8 %109 to i32
  %111 = getelementptr inbounds %struct._e_guid_t, ptr %19, i32 0, i32 3
  %112 = getelementptr [8 x i8], ptr %111, i64 0, i64 2
  %113 = load i8, ptr %112, align 2
  %114 = zext i8 %113 to i32
  %115 = getelementptr inbounds %struct._e_guid_t, ptr %19, i32 0, i32 3
  %116 = getelementptr [8 x i8], ptr %115, i64 0, i64 3
  %117 = load i8, ptr %116, align 1
  %118 = zext i8 %117 to i32
  %119 = getelementptr inbounds %struct._e_guid_t, ptr %19, i32 0, i32 3
  %120 = getelementptr [8 x i8], ptr %119, i64 0, i64 4
  %121 = load i8, ptr %120, align 4
  %122 = zext i8 %121 to i32
  %123 = getelementptr inbounds %struct._e_guid_t, ptr %19, i32 0, i32 3
  %124 = getelementptr [8 x i8], ptr %123, i64 0, i64 5
  %125 = load i8, ptr %124, align 1
  %126 = zext i8 %125 to i32
  %127 = getelementptr inbounds %struct._e_guid_t, ptr %19, i32 0, i32 3
  %128 = getelementptr [8 x i8], ptr %127, i64 0, i64 6
  %129 = load i8, ptr %128, align 2
  %130 = zext i8 %129 to i32
  %131 = getelementptr inbounds %struct._e_guid_t, ptr %19, i32 0, i32 3
  %132 = getelementptr [8 x i8], ptr %131, i64 0, i64 7
  %133 = load i8, ptr %132, align 1
  %134 = zext i8 %133 to i32
  %135 = call ptr (ptr, i32, ptr, i32, i32, ptr, ptr, ...) @proto_tree_add_guid_format(ptr noundef %87, i32 noundef %88, ptr noundef %89, i32 noundef %91, i32 noundef 16, ptr noundef %19, ptr noundef @.str.135, ptr noundef %94, i32 noundef %96, i32 noundef %99, i32 noundef %102, i32 noundef %106, i32 noundef %110, i32 noundef %114, i32 noundef %118, i32 noundef %122, i32 noundef %126, i32 noundef %130, i32 noundef %134)
  br label %136

136:                                              ; preds = %86, %35
  %137 = load ptr, ptr %16, align 8
  %138 = icmp ne ptr %137, null
  br i1 %138, label %139, label %141

139:                                              ; preds = %136
  %140 = load ptr, ptr %16, align 8
  call void @llvm.memcpy.p0.p0.i64(ptr align 4 %140, ptr align 4 %19, i64 16, i1 false)
  br label %141

141:                                              ; preds = %139, %136
  %142 = load i32, ptr %10, align 4
  ret i32 %142
}