; Function Attrs: nounwind uwtable
define i32 @dissect_dcom_UUID(ptr noundef %0, i32 noundef %1, ptr noundef %2, ptr noundef %3, ptr noundef %4, ptr noundef %5, i32 noundef %6, ptr noundef writeonly %7) local_unnamed_addr #1 {
  %9 = alloca %struct._e_guid_t, align 4
  %10 = call i32 @dissect_ndr_uuid_t(ptr noundef %0, i32 noundef %1, ptr noundef %2, ptr noundef null, ptr noundef %4, ptr noundef %5, i32 noundef %6, ptr noundef nonnull %9) #11
  %11 = call ptr @proto_registrar_get_nth(i32 noundef %6) #11
  %12 = getelementptr inbounds nuw i8, ptr %2, i64 408
  %13 = load ptr, ptr %12, align 8
  %14 = call ptr @guids_get_guid_name(ptr noundef nonnull %9, ptr noundef %13) #11
  %.not = icmp eq ptr %14, null
  %15 = add i32 %10, -16
  %16 = load ptr, ptr %11, align 8
  %17 = load i32, ptr %9, align 4
  %18 = getelementptr inbounds nuw i8, ptr %9, i64 4
  %19 = load i16, ptr %18, align 4
  %20 = zext i16 %19 to i32
  %21 = getelementptr inbounds nuw i8, ptr %9, i64 6
  %22 = load i16, ptr %21, align 2
  %23 = zext i16 %22 to i32
  %24 = getelementptr inbounds nuw i8, ptr %9, i64 8
  %25 = load i8, ptr %24, align 4
  %26 = zext i8 %25 to i32
  %27 = getelementptr inbounds nuw i8, ptr %9, i64 9
  %28 = load i8, ptr %27, align 1
  %29 = zext i8 %28 to i32
  %30 = getelementptr inbounds nuw i8, ptr %9, i64 10
  %31 = load i8, ptr %30, align 2
  %32 = zext i8 %31 to i32
  %33 = getelementptr inbounds nuw i8, ptr %9, i64 11
  %34 = load i8, ptr %33, align 1
  %35 = zext i8 %34 to i32
  %36 = getelementptr inbounds nuw i8, ptr %9, i64 12
  %37 = load i8, ptr %36, align 4
  %38 = zext i8 %37 to i32
  %39 = getelementptr inbounds nuw i8, ptr %9, i64 13
  %40 = load i8, ptr %39, align 1
  %41 = zext i8 %40 to i32
  %42 = getelementptr inbounds nuw i8, ptr %9, i64 14
  %43 = load i8, ptr %42, align 2
  %44 = zext i8 %43 to i32
  %45 = getelementptr inbounds nuw i8, ptr %9, i64 15
  %46 = load i8, ptr %45, align 1
  %47 = zext i8 %46 to i32
  br i1 %.not, label %50, label %48

48:                                               ; preds = %8
  %49 = call ptr (ptr, i32, ptr, i32, i32, ptr, ptr, ...) @proto_tree_add_guid_format(ptr noundef %3, i32 noundef %6, ptr noundef %0, i32 noundef %15, i32 noundef 16, ptr noundef nonnull %9, ptr noundef nonnull @.str.134, ptr noundef %16, ptr noundef nonnull %14, i32 noundef %17, i32 noundef %20, i32 noundef %23, i32 noundef %26, i32 noundef %29, i32 noundef %32, i32 noundef %35, i32 noundef %38, i32 noundef %41, i32 noundef %44, i32 noundef %47) #11
  br label %52

50:                                               ; preds = %8
  %51 = call ptr (ptr, i32, ptr, i32, i32, ptr, ptr, ...) @proto_tree_add_guid_format(ptr noundef %3, i32 noundef %6, ptr noundef %0, i32 noundef %15, i32 noundef 16, ptr noundef nonnull %9, ptr noundef nonnull @.str.135, ptr noundef %16, i32 noundef %17, i32 noundef %20, i32 noundef %23, i32 noundef %26, i32 noundef %29, i32 noundef %32, i32 noundef %35, i32 noundef %38, i32 noundef %41, i32 noundef %44, i32 noundef %47) #11
  br label %52

52:                                               ; preds = %50, %48
  %.not23 = icmp eq ptr %7, null
  br i1 %.not23, label %54, label %53

53:                                               ; preds = %52
  call void @llvm.memcpy.p0.p0.i64(ptr noundef nonnull align 4 dereferenceable(16) %7, ptr noundef nonnull align 4 dereferenceable(16) %9, i64 16, i1 false)
  br label %54

54:                                               ; preds = %53, %52
  ret i32 %10
}